; Function Attrs: mustprogress nofree norecurse nosync nounwind willreturn memory(read, inaccessiblemem: none) uwtable
define noundef zeroext i1 @_ZNK7Imf_3_411TileOffsets7isEmptyEv(ptr noundef nonnull readonly align 8 captures(none) dereferenceable(40) %0) local_unnamed_addr #7 align 2 {
  %2 = getelementptr inbounds nuw i8, ptr %0, i64 16
  %3 = getelementptr inbounds nuw i8, ptr %0, i64 24
  %4 = load ptr, ptr %3, align 8, !tbaa !17
  %5 = load ptr, ptr %2, align 8, !tbaa !18
  %6 = ptrtoint ptr %4 to i64
  %7 = ptrtoint ptr %5 to i64
  %8 = sub i64 %6, %7
  %9 = sdiv exact i64 %8, 24
  %10 = icmp eq ptr %4, %5
  br i1 %10, label %.loopexit, label %.preheader31

.preheader31:                                     ; preds = %1, %._crit_edge37
  %11 = phi i64 [ %39, %._crit_edge37 ], [ 0, %1 ]
  %.01938 = phi i32 [ %38, %._crit_edge37 ], [ 0, %1 ]
  %12 = getelementptr inbounds nuw %"class.std::vector.0", ptr %5, i64 %11
  %13 = getelementptr inbounds nuw i8, ptr %12, i64 8
  %14 = load ptr, ptr %13, align 8, !tbaa !20
  %15 = load ptr, ptr %12, align 8, !tbaa !23
  %16 = ptrtoint ptr %14 to i64
  %17 = ptrtoint ptr %15 to i64
  %18 = sub i64 %16, %17
  %19 = sdiv exact i64 %18, 24
  %.not39 = icmp eq ptr %14, %15
  br i1 %.not39, label %._crit_edge37, label %.preheader

.preheader:                                       ; preds = %.preheader31, %._crit_edge
  %20 = phi i64 [ %36, %._crit_edge ], [ 0, %.preheader31 ]
  %.01736 = phi i32 [ %35, %._crit_edge ], [ 0, %.preheader31 ]
  %21 = getelementptr inbounds nuw %"class.std::vector.5", ptr %15, i64 %20
  %22 = getelementptr inbounds nuw i8, ptr %21, i64 8
  %23 = load ptr, ptr %22, align 8, !tbaa !31
  %24 = load ptr, ptr %21, align 8, !tbaa !24
  %25 = ptrtoint ptr %23 to i64
  %26 = ptrtoint ptr %24 to i64
  %27 = sub i64 %25, %26
  %28 = ashr exact i64 %27, 3
  %.not2634.not = icmp eq ptr %23, %24
  br i1 %.not2634.not, label %._crit_edge, label %.lr.ph

29:                                               ; preds = %.lr.ph
  %30 = add i32 %.035, 1
  %31 = zext i32 %30 to i64
  %.not26 = icmp ugt i64 %28, %31
  br i1 %.not26, label %.lr.ph, label %._crit_edge, !llvm.loop !97

.lr.ph:                                           ; preds = %.preheader, %29
  %32 = phi i64 [ %31, %29 ], [ 0, %.preheader ]
  %.035 = phi i32 [ %30, %29 ], [ 0, %.preheader ]
  %33 = getelementptr inbounds nuw i64, ptr %24, i64 %32
  %34 = load i64, ptr %33, align 8, !tbaa !32
  %.not = icmp eq i64 %34, 0
  br i1 %.not, label %29, label %.loopexit

._crit_edge:                                      ; preds = %29, %.preheader
  %35 = add i32 %.01736, 1
  %36 = zext i32 %35 to i64
  %37 = icmp ugt i64 %19, %36
  br i1 %37, label %.preheader, label %._crit_edge37, !llvm.loop !98

._crit_edge37:                                    ; preds = %._crit_edge, %.preheader31
  %38 = add i32 %.01938, 1
  %39 = zext i32 %38 to i64
  %.not40 = icmp ugt i64 %9, %39
  br i1 %.not40, label %.preheader31, label %.loopexit, !llvm.loop !99

.loopexit:                                        ; preds = %._crit_edge37, %.lr.ph, %1
  %40 = phi i1 [ true, %1 ], [ false, %.lr.ph ], [ true, %._crit_edge37 ]
  ret i1 %40
}